target datalayout = "e-m:e-p270:32:32-p271:32:32-p272:64:64-i64:64-i128:128-f80:128-n8:16:32:64-S128"
target triple = "x86_64-unknown-linux-gnu"

%"class.std::set.11" = type { %"class.std::_Rb_tree.12" }
%"class.std::_Rb_tree.12" = type { %"struct.std::_Rb_tree<QuantLib::Observer *, QuantLib::Observer *, std::_Identity<QuantLib::Observer *>, std::less<QuantLib::Observer *>>::_Rb_tree_impl" }
%"struct.std::_Rb_tree<QuantLib::Observer *, QuantLib::Observer *, std::_Identity<QuantLib::Observer *>, std::less<QuantLib::Observer *>>::_Rb_tree_impl" = type { [8 x i8], %"struct.std::_Rb_tree_header" }
%"struct.std::_Rb_tree_header" = type { %"struct.std::_Rb_tree_node_base", i64 }
%"struct.std::_Rb_tree_node_base" = type { i32, ptr, ptr, ptr }
%"class.boost::detail::shared_count" = type { ptr }
%"class.QuantLib::Array" = type { %"class.std::unique_ptr", i64 }
%"class.std::unique_ptr" = type { %"struct.std::__uniq_ptr_data" }
%"struct.std::__uniq_ptr_data" = type { %"class.std::__uniq_ptr_impl" }
%"class.std::__uniq_ptr_impl" = type { %"class.std::tuple" }
%"class.std::tuple" = type { %"struct.std::_Tuple_impl" }
%"struct.std::_Tuple_impl" = type { %"struct.std::_Head_base.1" }
%"struct.std::_Head_base.1" = type { ptr }
%"class.std::set" = type { %"class.std::_Rb_tree" }
%"class.std::_Rb_tree" = type { %"struct.std::_Rb_tree<boost::shared_ptr<QuantLib::Observable>, boost::shared_ptr<QuantLib::Observable>, std::_Identity<boost::shared_ptr<QuantLib::Observable>>, std::less<boost::shared_ptr<QuantLib::Observable>>>::_Rb_tree_impl" }
%"struct.std::_Rb_tree<boost::shared_ptr<QuantLib::Observable>, boost::shared_ptr<QuantLib::Observable>, std::_Identity<boost::shared_ptr<QuantLib::Observable>>, std::less<boost::shared_ptr<QuantLib::Observable>>>::_Rb_tree_impl" = type { [8 x i8], %"struct.std::_Rb_tree_header" }
%"class.QuantLib::Observable" = type { ptr, %"class.std::set.11" }
%"class.QuantLib::Parameter" = type { %"class.boost::shared_ptr.35", %"class.QuantLib::Array", %"class.QuantLib::Constraint" }
%"class.boost::shared_ptr.35" = type { ptr, %"class.boost::detail::shared_count" }
%"class.QuantLib::Constraint" = type { %"class.boost::shared_ptr.36" }
%"class.boost::shared_ptr.36" = type { ptr, %"class.boost::detail::shared_count" }
%"class.QuantLib::Vasicek" = type { %"class.QuantLib::OneFactorAffineModel.base", double, ptr, ptr, ptr, ptr, %"class.QuantLib::Observer", %"class.QuantLib::Observable" }
%"class.QuantLib::OneFactorAffineModel.base" = type { %"class.QuantLib::OneFactorModel.base", %"class.QuantLib::AffineModel.base" }
%"class.QuantLib::OneFactorModel.base" = type { %"class.QuantLib::ShortRateModel.base" }
%"class.QuantLib::ShortRateModel.base" = type { %"class.QuantLib::CalibratedModel.base" }
%"class.QuantLib::CalibratedModel.base" = type <{ ptr, %"class.std::vector.29", %"class.boost::shared_ptr.34", i32, [4 x i8], %"class.QuantLib::Array", i32 }>
%"class.std::vector.29" = type { %"struct.std::_Vector_base.30" }
%"struct.std::_Vector_base.30" = type { %"struct.std::_Vector_base<QuantLib::Parameter, std::allocator<QuantLib::Parameter>>::_Vector_impl" }
%"struct.std::_Vector_base<QuantLib::Parameter, std::allocator<QuantLib::Parameter>>::_Vector_impl" = type { %"struct.std::_Vector_base<QuantLib::Parameter, std::allocator<QuantLib::Parameter>>::_Vector_impl_data" }
%"struct.std::_Vector_base<QuantLib::Parameter, std::allocator<QuantLib::Parameter>>::_Vector_impl_data" = type { ptr, ptr, ptr }
%"class.boost::shared_ptr.34" = type { ptr, %"class.boost::detail::shared_count" }
%"class.QuantLib::AffineModel.base" = type { ptr }
%"class.QuantLib::Observer" = type { ptr, %"class.std::set" }

@.str.9 = private unnamed_addr constant [8 x i8] c"px != 0\00", align 1
@.str.10 = private unnamed_addr constant [102 x i8] c"generated/home/dtcxzyw/WorkSpace/SDK/vcpkg/installed/x64-linux/include/boost/smart_ptr/shared_ptr.hpp\00", align 1
@__PRETTY_FUNCTION__._ZNK5boost10shared_ptrIN8QuantLib9Parameter4ImplEEptEv = private unnamed_addr constant [147 x i8] c"typename boost::detail::sp_member_access<T>::type boost::shared_ptr<QuantLib::Parameter::Impl>::operator->() const [T = QuantLib::Parameter::Impl]\00", align 1

; Function Attrs: mustprogress uwtable
define linkonce_odr noundef ptr @_ZNK5boost10shared_ptrIN8QuantLib9Parameter4ImplEEptEv(ptr noundef nonnull align 8 dereferenceable(16) %this) #1 comdat align 2 {
entry:
  %this.addr = alloca ptr, align 8
  store ptr %this, ptr %this.addr, align 8, !tbaa !3
  %this1 = load ptr, ptr %this.addr, align 8
  %px = getelementptr inbounds nuw %"class.boost::shared_ptr.35", ptr %this1, i32 0, i32 0
  %0 = load ptr, ptr %px, align 8, !tbaa !93
  %cmp = icmp ne ptr %0, null
  %lnot = xor i1 %cmp, true
  %lnot2 = xor i1 %lnot, true
  %conv = zext i1 %lnot2 to i64
  %expval = call i64 @llvm.expect.i64(i64 %conv, i64 1)
  %tobool = icmp ne i64 %expval, 0
  br i1 %tobool, label %cond.true, label %cond.false

cond.true:                                        ; preds = %entry
  br label %cond.end

cond.false:                                       ; preds = %entry
  call void @_ZN5boost16assertion_failedEPKcS1_S1_l(ptr noundef @.str.9, ptr noundef @__PRETTY_FUNCTION__._ZNK5boost10shared_ptrIN8QuantLib9Parameter4ImplEEptEv, ptr noundef @.str.10, i64 noundef 784)
  br label %cond.end

cond.end:                                         ; preds = %cond.false, %cond.true
  %px3 = getelementptr inbounds nuw %"class.boost::shared_ptr.35", ptr %this1, i32 0, i32 0
  %1 = load ptr, ptr %px3, align 8, !tbaa !93
  ret ptr %1
}

; Function Attrs: mustprogress uwtable
define linkonce_odr noundef double @_ZNK8QuantLib9ParameterclEd(ptr noundef nonnull align 8 dereferenceable(48) %this, double noundef %t) #1 comdat align 2 {
entry:
  %this.addr = alloca ptr, align 8
  %t.addr = alloca double, align 8
  store ptr %this, ptr %this.addr, align 8, !tbaa !3
  store double %t, ptr %t.addr, align 8, !tbaa !11
  %this1 = load ptr, ptr %this.addr, align 8
  %impl_ = getelementptr inbounds nuw %"class.QuantLib::Parameter", ptr %this1, i32 0, i32 0
  %call = call noundef ptr @_ZNK5boost10shared_ptrIN8QuantLib9Parameter4ImplEEptEv(ptr noundef nonnull align 8 dereferenceable(16) %impl_)
  %params_ = getelementptr inbounds nuw %"class.QuantLib::Parameter", ptr %this1, i32 0, i32 1
  %0 = load double, ptr %t.addr, align 8, !tbaa !11
  %vtable = load ptr, ptr %call, align 8, !tbaa !7
  %vfn = getelementptr inbounds ptr, ptr %vtable, i64 2
  %1 = load ptr, ptr %vfn, align 8
  %call2 = call noundef double %1(ptr noundef nonnull align 8 dereferenceable(8) %call, ptr noundef nonnull align 8 dereferenceable(16) %params_, double noundef %0)
  ret double %call2
}

; Function Attrs: mustprogress uwtable
define linkonce_odr noundef double @_ZNK8QuantLib7Vasicek6lambdaEv(ptr noundef nonnull align 8 dereferenceable(128) %this) #1 comdat align 2 {
entry:
  %this.addr = alloca ptr, align 8
  store ptr %this, ptr %this.addr, align 8, !tbaa !3
  %this1 = load ptr, ptr %this.addr, align 8
  %lambda_ = getelementptr inbounds nuw %"class.QuantLib::Vasicek", ptr %this1, i32 0, i32 5
  %0 = load ptr, ptr %lambda_, align 8, !tbaa !45
  %call = call noundef double @_ZNK8QuantLib9ParameterclEd(ptr noundef nonnull align 8 dereferenceable(48) %0, double noundef 0.000000e+00)
  ret double %call
}

; Function Attrs: mustprogress uwtable
define linkonce_odr noundef double @_ZNK8QuantLib7Vasicek1bEv(ptr noundef nonnull align 8 dereferenceable(128) %this) #1 comdat align 2 {
entry:
  %this.addr = alloca ptr, align 8
  store ptr %this, ptr %this.addr, align 8, !tbaa !3
  %this1 = load ptr, ptr %this.addr, align 8
  %b_ = getelementptr inbounds nuw %"class.QuantLib::Vasicek", ptr %this1, i32 0, i32 3
  %0 = load ptr, ptr %b_, align 8, !tbaa !43
  %call = call noundef double @_ZNK8QuantLib9ParameterclEd(ptr noundef nonnull align 8 dereferenceable(48) %0, double noundef 0.000000e+00)
  ret double %call
}

; Function Attrs: mustprogress uwtable
define linkonce_odr noundef double @_ZNK8QuantLib7Vasicek5sigmaEv(ptr noundef nonnull align 8 dereferenceable(128) %this) #1 comdat align 2 {
entry:
  %this.addr = alloca ptr, align 8
  store ptr %this, ptr %this.addr, align 8, !tbaa !3
  %this1 = load ptr, ptr %this.addr, align 8
  %sigma_ = getelementptr inbounds nuw %"class.QuantLib::Vasicek", ptr %this1, i32 0, i32 4
  %0 = load ptr, ptr %sigma_, align 8, !tbaa !44
  %call = call noundef double @_ZNK8QuantLib9ParameterclEd(ptr noundef nonnull align 8 dereferenceable(48) %0, double noundef 0.000000e+00)
  ret double %call
}

; Function Attrs: mustprogress nounwind uwtable
define linkonce_odr noundef double @_ZNSt14numeric_limitsIdE7epsilonEv() #3 comdat align 2 {
entry:
  ret double 0x3CB0000000000000
}

; Function Attrs: mustprogress uwtable
define linkonce_odr noundef double @_ZNK8QuantLib7Vasicek1aEv(ptr noundef nonnull align 8 dereferenceable(128) %this) #1 comdat align 2 {
entry:
  %this.addr = alloca ptr, align 8
  store ptr %this, ptr %this.addr, align 8, !tbaa !3
  %this1 = load ptr, ptr %this.addr, align 8
  %a_ = getelementptr inbounds nuw %"class.QuantLib::Vasicek", ptr %this1, i32 0, i32 2
  %0 = load ptr, ptr %a_, align 8, !tbaa !42
  %call = call noundef double @_ZNK8QuantLib9ParameterclEd(ptr noundef nonnull align 8 dereferenceable(48) %0, double noundef 0.000000e+00)
  ret double %call
}

; Function Attrs: mustprogress uwtable
define noundef double @_ZNK8QuantLib7Vasicek1AEdd(ptr noundef nonnull align 8 dereferenceable(128) %this, double noundef %t, double noundef %T) unnamed_addr #1 align 2 {
entry:
  %retval = alloca double, align 8
  %this.addr = alloca ptr, align 8
  %t.addr = alloca double, align 8
  %T.addr = alloca double, align 8
  %_a = alloca double, align 8
  %cleanup.dest.slot = alloca i32, align 4
  %sigma2 = alloca double, align 8
  %bt = alloca double, align 8
  store ptr %this, ptr %this.addr, align 8, !tbaa !3
  store double %t, ptr %t.addr, align 8, !tbaa !11
  store double %T, ptr %T.addr, align 8, !tbaa !11
  %this1 = load ptr, ptr %this.addr, align 8
  call void @llvm.lifetime.start.p0(i64 8, ptr %_a) #15
  %call = call noundef double @_ZNK8QuantLib7Vasicek1aEv(ptr noundef nonnull align 8 dereferenceable(128) %this1)
  store double %call, ptr %_a, align 8, !tbaa !11
  %0 = load double, ptr %_a, align 8, !tbaa !11
  %call2 = call noundef double @_ZNSt14numeric_limitsIdE7epsilonEv() #15
  %call3 = call double @sqrt(double noundef %call2) #15, !tbaa !47
  %cmp = fcmp olt double %0, %call3
  br i1 %cmp, label %if.then, label %if.else

if.then:                                          ; preds = %entry
  store double 0.000000e+00, ptr %retval, align 8
  store i32 1, ptr %cleanup.dest.slot, align 4
  br label %cleanup

if.else:                                          ; preds = %entry
  call void @llvm.lifetime.start.p0(i64 8, ptr %sigma2) #15
  %call4 = call noundef double @_ZNK8QuantLib7Vasicek5sigmaEv(ptr noundef nonnull align 8 dereferenceable(128) %this1)
  %call5 = call noundef double @_ZNK8QuantLib7Vasicek5sigmaEv(ptr noundef nonnull align 8 dereferenceable(128) %this1)
  %mul = fmul double %call4, %call5
  store double %mul, ptr %sigma2, align 8, !tbaa !11
  call void @llvm.lifetime.start.p0(i64 8, ptr %bt) #15
  %1 = load double, ptr %t.addr, align 8, !tbaa !11
  %2 = load double, ptr %T.addr, align 8, !tbaa !11
  %vtable = load ptr, ptr %this1, align 8, !tbaa !7
  %vfn = getelementptr inbounds ptr, ptr %vtable, i64 11
  %3 = load ptr, ptr %vfn, align 8
  %call6 = call noundef double %3(ptr noundef nonnull align 8 dereferenceable(128) %this1, double noundef %1, double noundef %2)
  store double %call6, ptr %bt, align 8, !tbaa !11
  %call7 = call noundef double @_ZNK8QuantLib7Vasicek1bEv(ptr noundef nonnull align 8 dereferenceable(128) %this1)
  %call8 = call noundef double @_ZNK8QuantLib7Vasicek6lambdaEv(ptr noundef nonnull align 8 dereferenceable(128) %this1)
  %call9 = call noundef double @_ZNK8QuantLib7Vasicek5sigmaEv(ptr noundef nonnull align 8 dereferenceable(128) %this1)
  %mul10 = fmul double %call8, %call9
  %4 = load double, ptr %_a, align 8, !tbaa !11
  %div = fdiv double %mul10, %4
  %add = fadd double %call7, %div
  %5 = load double, ptr %sigma2, align 8, !tbaa !11
  %mul11 = fmul double 5.000000e-01, %5
  %6 = load double, ptr %_a, align 8, !tbaa !11
  %7 = load double, ptr %_a, align 8, !tbaa !11
  %mul12 = fmul double %6, %7
  %div13 = fdiv double %mul11, %mul12
  %sub = fsub double %add, %div13
  %8 = load double, ptr %bt, align 8, !tbaa !11
  %9 = load double, ptr %T.addr, align 8, !tbaa !11
  %10 = load double, ptr %t.addr, align 8, !tbaa !11
  %sub14 = fsub double %9, %10
  %sub15 = fsub double %8, %sub14
  %11 = load double, ptr %sigma2, align 8, !tbaa !11
  %mul17 = fmul double 2.500000e-01, %11
  %12 = load double, ptr %bt, align 8, !tbaa !11
  %mul18 = fmul double %mul17, %12
  %13 = load double, ptr %bt, align 8, !tbaa !11
  %mul19 = fmul double %mul18, %13
  %14 = load double, ptr %_a, align 8, !tbaa !11
  %div20 = fdiv double %mul19, %14
  %neg = fneg double %div20
  %15 = call double @llvm.fmuladd.f64(double %sub, double %sub15, double %neg)
  %call21 = call double @exp(double noundef %15) #15, !tbaa !47
  store double %call21, ptr %retval, align 8
  store i32 1, ptr %cleanup.dest.slot, align 4
  call void @llvm.lifetime.end.p0(i64 8, ptr %bt) #15
  call void @llvm.lifetime.end.p0(i64 8, ptr %sigma2) #15
  br label %cleanup

cleanup:                                          ; preds = %if.else, %if.then
  call void @llvm.lifetime.end.p0(i64 8, ptr %_a) #15
  %16 = load double, ptr %retval, align 8
  ret double %16
}