; Function Attrs: mustprogress uwtable
define noundef double @_ZNK8QuantLib7Vasicek1AEdd(ptr noundef nonnull align 8 dereferenceable(128) %this, double noundef %t, double noundef %T) unnamed_addr #1 align 2 {
entry:
  %a_.i = getelementptr inbounds nuw i8, ptr %this, i64 96
  %0 = load ptr, ptr %a_.i, align 8, !tbaa !62
  %1 = load ptr, ptr %0, align 8, !tbaa !63
  %cmp.not.i.i.i = icmp eq ptr %1, null
  br i1 %cmp.not.i.i.i, label %cond.false.i.i.i, label %_ZNK8QuantLib7Vasicek1aEv.exit, !prof !72

cond.false.i.i.i:                                 ; preds = %entry
  tail call void @_ZN5boost16assertion_failedEPKcS1_S1_l(ptr noundef nonnull @.str.9, ptr noundef nonnull @__PRETTY_FUNCTION__._ZNK5boost10shared_ptrIN8QuantLib9Parameter4ImplEEptEv, ptr noundef nonnull @.str.10, i64 noundef 784)
  %.pre.i.i.i = load ptr, ptr %0, align 8, !tbaa !63
  br label %_ZNK8QuantLib7Vasicek1aEv.exit

_ZNK8QuantLib7Vasicek1aEv.exit:                   ; preds = %entry, %cond.false.i.i.i
  %2 = phi ptr [ %1, %entry ], [ %.pre.i.i.i, %cond.false.i.i.i ]
  %params_.i.i = getelementptr inbounds nuw i8, ptr %0, i64 16
  %vtable.i.i = load ptr, ptr %2, align 8, !tbaa !14
  %vfn.i.i = getelementptr inbounds i8, ptr %vtable.i.i, i64 16
  %3 = load ptr, ptr %vfn.i.i, align 8
  %call2.i.i = tail call noundef double %3(ptr noundef nonnull align 8 dereferenceable(8) %2, ptr noundef nonnull align 8 dereferenceable(16) %params_.i.i, double noundef 0.000000e+00)
  %cmp = fcmp olt double %call2.i.i, 0x3E50000000000000
  br i1 %cmp, label %cleanup, label %if.else

if.else:                                          ; preds = %_ZNK8QuantLib7Vasicek1aEv.exit
  %sigma_.i = getelementptr inbounds nuw i8, ptr %this, i64 112
  %4 = load ptr, ptr %sigma_.i, align 8, !tbaa !68
  %5 = load ptr, ptr %4, align 8, !tbaa !63
  %cmp.not.i.i.i10 = icmp eq ptr %5, null
  br i1 %cmp.not.i.i.i10, label %cond.false.i.i.i15, label %_ZNK8QuantLib7Vasicek5sigmaEv.exit, !prof !72

cond.false.i.i.i15:                               ; preds = %if.else
  tail call void @_ZN5boost16assertion_failedEPKcS1_S1_l(ptr noundef nonnull @.str.9, ptr noundef nonnull @__PRETTY_FUNCTION__._ZNK5boost10shared_ptrIN8QuantLib9Parameter4ImplEEptEv, ptr noundef nonnull @.str.10, i64 noundef 784)
  %.pre.i.i.i16 = load ptr, ptr %4, align 8, !tbaa !63
  br label %_ZNK8QuantLib7Vasicek5sigmaEv.exit

_ZNK8QuantLib7Vasicek5sigmaEv.exit:               ; preds = %if.else, %cond.false.i.i.i15
  %6 = phi ptr [ %5, %if.else ], [ %.pre.i.i.i16, %cond.false.i.i.i15 ]
  %params_.i.i11 = getelementptr inbounds nuw i8, ptr %4, i64 16
  %vtable.i.i12 = load ptr, ptr %6, align 8, !tbaa !14
  %vfn.i.i13 = getelementptr inbounds i8, ptr %vtable.i.i12, i64 16
  %7 = load ptr, ptr %vfn.i.i13, align 8
  %call2.i.i14 = tail call noundef double %7(ptr noundef nonnull align 8 dereferenceable(8) %6, ptr noundef nonnull align 8 dereferenceable(16) %params_.i.i11, double noundef 0.000000e+00)
  %8 = load ptr, ptr %sigma_.i, align 8, !tbaa !68
  %9 = load ptr, ptr %8, align 8, !tbaa !63
  %cmp.not.i.i.i18 = icmp eq ptr %9, null
  br i1 %cmp.not.i.i.i18, label %cond.false.i.i.i23, label %_ZNK8QuantLib7Vasicek5sigmaEv.exit25, !prof !72

cond.false.i.i.i23:                               ; preds = %_ZNK8QuantLib7Vasicek5sigmaEv.exit
  tail call void @_ZN5boost16assertion_failedEPKcS1_S1_l(ptr noundef nonnull @.str.9, ptr noundef nonnull @__PRETTY_FUNCTION__._ZNK5boost10shared_ptrIN8QuantLib9Parameter4ImplEEptEv, ptr noundef nonnull @.str.10, i64 noundef 784)
  %.pre.i.i.i24 = load ptr, ptr %8, align 8, !tbaa !63
  br label %_ZNK8QuantLib7Vasicek5sigmaEv.exit25

_ZNK8QuantLib7Vasicek5sigmaEv.exit25:             ; preds = %_ZNK8QuantLib7Vasicek5sigmaEv.exit, %cond.false.i.i.i23
  %10 = phi ptr [ %9, %_ZNK8QuantLib7Vasicek5sigmaEv.exit ], [ %.pre.i.i.i24, %cond.false.i.i.i23 ]
  %params_.i.i19 = getelementptr inbounds nuw i8, ptr %8, i64 16
  %vtable.i.i20 = load ptr, ptr %10, align 8, !tbaa !14
  %vfn.i.i21 = getelementptr inbounds i8, ptr %vtable.i.i20, i64 16
  %11 = load ptr, ptr %vfn.i.i21, align 8
  %call2.i.i22 = tail call noundef double %11(ptr noundef nonnull align 8 dereferenceable(8) %10, ptr noundef nonnull align 8 dereferenceable(16) %params_.i.i19, double noundef 0.000000e+00)
  %mul = fmul double %call2.i.i14, %call2.i.i22
  %vtable = load ptr, ptr %this, align 8, !tbaa !14
  %vfn = getelementptr inbounds i8, ptr %vtable, i64 88
  %12 = load ptr, ptr %vfn, align 8
  %call6 = tail call noundef double %12(ptr noundef nonnull align 8 dereferenceable(128) %this, double noundef %t, double noundef %T)
  %b_.i = getelementptr inbounds nuw i8, ptr %this, i64 104
  %13 = load ptr, ptr %b_.i, align 8, !tbaa !67
  %14 = load ptr, ptr %13, align 8, !tbaa !63
  %cmp.not.i.i.i26 = icmp eq ptr %14, null
  br i1 %cmp.not.i.i.i26, label %cond.false.i.i.i31, label %_ZNK8QuantLib7Vasicek1bEv.exit, !prof !72

cond.false.i.i.i31:                               ; preds = %_ZNK8QuantLib7Vasicek5sigmaEv.exit25
  tail call void @_ZN5boost16assertion_failedEPKcS1_S1_l(ptr noundef nonnull @.str.9, ptr noundef nonnull @__PRETTY_FUNCTION__._ZNK5boost10shared_ptrIN8QuantLib9Parameter4ImplEEptEv, ptr noundef nonnull @.str.10, i64 noundef 784)
  %.pre.i.i.i32 = load ptr, ptr %13, align 8, !tbaa !63
  br label %_ZNK8QuantLib7Vasicek1bEv.exit

_ZNK8QuantLib7Vasicek1bEv.exit:                   ; preds = %_ZNK8QuantLib7Vasicek5sigmaEv.exit25, %cond.false.i.i.i31
  %15 = phi ptr [ %14, %_ZNK8QuantLib7Vasicek5sigmaEv.exit25 ], [ %.pre.i.i.i32, %cond.false.i.i.i31 ]
  %params_.i.i27 = getelementptr inbounds nuw i8, ptr %13, i64 16
  %vtable.i.i28 = load ptr, ptr %15, align 8, !tbaa !14
  %vfn.i.i29 = getelementptr inbounds i8, ptr %vtable.i.i28, i64 16
  %16 = load ptr, ptr %vfn.i.i29, align 8
  %call2.i.i30 = tail call noundef double %16(ptr noundef nonnull align 8 dereferenceable(8) %15, ptr noundef nonnull align 8 dereferenceable(16) %params_.i.i27, double noundef 0.000000e+00)
  %lambda_.i = getelementptr inbounds nuw i8, ptr %this, i64 120
  %17 = load ptr, ptr %lambda_.i, align 8, !tbaa !69
  %18 = load ptr, ptr %17, align 8, !tbaa !63
  %cmp.not.i.i.i33 = icmp eq ptr %18, null
  br i1 %cmp.not.i.i.i33, label %cond.false.i.i.i38, label %_ZNK8QuantLib7Vasicek6lambdaEv.exit, !prof !72

cond.false.i.i.i38:                               ; preds = %_ZNK8QuantLib7Vasicek1bEv.exit
  tail call void @_ZN5boost16assertion_failedEPKcS1_S1_l(ptr noundef nonnull @.str.9, ptr noundef nonnull @__PRETTY_FUNCTION__._ZNK5boost10shared_ptrIN8QuantLib9Parameter4ImplEEptEv, ptr noundef nonnull @.str.10, i64 noundef 784)
  %.pre.i.i.i39 = load ptr, ptr %17, align 8, !tbaa !63
  br label %_ZNK8QuantLib7Vasicek6lambdaEv.exit

_ZNK8QuantLib7Vasicek6lambdaEv.exit:              ; preds = %_ZNK8QuantLib7Vasicek1bEv.exit, %cond.false.i.i.i38
  %19 = phi ptr [ %18, %_ZNK8QuantLib7Vasicek1bEv.exit ], [ %.pre.i.i.i39, %cond.false.i.i.i38 ]
  %params_.i.i34 = getelementptr inbounds nuw i8, ptr %17, i64 16
  %vtable.i.i35 = load ptr, ptr %19, align 8, !tbaa !14
  %vfn.i.i36 = getelementptr inbounds i8, ptr %vtable.i.i35, i64 16
  %20 = load ptr, ptr %vfn.i.i36, align 8
  %call2.i.i37 = tail call noundef double %20(ptr noundef nonnull align 8 dereferenceable(8) %19, ptr noundef nonnull align 8 dereferenceable(16) %params_.i.i34, double noundef 0.000000e+00)
  %21 = load ptr, ptr %sigma_.i, align 8, !tbaa !68
  %22 = load ptr, ptr %21, align 8, !tbaa !63
  %cmp.not.i.i.i41 = icmp eq ptr %22, null
  br i1 %cmp.not.i.i.i41, label %cond.false.i.i.i46, label %_ZNK8QuantLib7Vasicek5sigmaEv.exit48, !prof !72

cond.false.i.i.i46:                               ; preds = %_ZNK8QuantLib7Vasicek6lambdaEv.exit
  tail call void @_ZN5boost16assertion_failedEPKcS1_S1_l(ptr noundef nonnull @.str.9, ptr noundef nonnull @__PRETTY_FUNCTION__._ZNK5boost10shared_ptrIN8QuantLib9Parameter4ImplEEptEv, ptr noundef nonnull @.str.10, i64 noundef 784)
  %.pre.i.i.i47 = load ptr, ptr %21, align 8, !tbaa !63
  br label %_ZNK8QuantLib7Vasicek5sigmaEv.exit48

_ZNK8QuantLib7Vasicek5sigmaEv.exit48:             ; preds = %_ZNK8QuantLib7Vasicek6lambdaEv.exit, %cond.false.i.i.i46
  %23 = phi ptr [ %22, %_ZNK8QuantLib7Vasicek6lambdaEv.exit ], [ %.pre.i.i.i47, %cond.false.i.i.i46 ]
  %params_.i.i42 = getelementptr inbounds nuw i8, ptr %21, i64 16
  %vtable.i.i43 = load ptr, ptr %23, align 8, !tbaa !14
  %vfn.i.i44 = getelementptr inbounds i8, ptr %vtable.i.i43, i64 16
  %24 = load ptr, ptr %vfn.i.i44, align 8
  %call2.i.i45 = tail call noundef double %24(ptr noundef nonnull align 8 dereferenceable(8) %23, ptr noundef nonnull align 8 dereferenceable(16) %params_.i.i42, double noundef 0.000000e+00)
  %mul10 = fmul double %call2.i.i37, %call2.i.i45
  %div = fdiv double %mul10, %call2.i.i
  %add = fadd double %call2.i.i30, %div
  %mul11 = fmul double %mul, 5.000000e-01
  %mul12 = fmul double %call2.i.i, %call2.i.i
  %div13 = fdiv double %mul11, %mul12
  %sub = fsub double %add, %div13
  %sub14 = fsub double %T, %t
  %sub15 = fsub double %call6, %sub14
  %mul17 = fmul double %mul, 2.500000e-01
  %mul18 = fmul double %mul17, %call6
  %25 = fneg double %call6
  %26 = fmul double %mul18, %25
  %neg = fdiv double %26, %call2.i.i
  %27 = tail call double @llvm.fmuladd.f64(double %sub, double %sub15, double %neg)
  %call21 = tail call double @exp(double noundef %27) #26, !tbaa !73
  br label %cleanup

cleanup:                                          ; preds = %_ZNK8QuantLib7Vasicek1aEv.exit, %_ZNK8QuantLib7Vasicek5sigmaEv.exit48
  %retval.0 = phi double [ %call21, %_ZNK8QuantLib7Vasicek5sigmaEv.exit48 ], [ 0.000000e+00, %_ZNK8QuantLib7Vasicek1aEv.exit ]
  ret double %retval.0
}